target datalayout = "e-m:e-p270:32:32-p271:32:32-p272:64:64-i64:64-i128:128-f80:128-n8:16:32:64-S128"
target triple = "x86_64-pc-linux-gnu"

%struct.commit_list = type { ptr, ptr }

; Function Attrs: nounwind uwtable
define dso_local i32 @commit_list_contains(ptr noundef %0, ptr noundef %1) #0 {
  %3 = alloca i32, align 4
  %4 = alloca ptr, align 8
  %5 = alloca ptr, align 8
  store ptr %0, ptr %4, align 8, !tbaa !17
  store ptr %1, ptr %5, align 8, !tbaa !58
  br label %6

6:                                                ; preds = %16, %2
  %7 = load ptr, ptr %5, align 8, !tbaa !58
  %8 = icmp ne ptr %7, null
  br i1 %8, label %9, label %20

9:                                                ; preds = %6
  %10 = load ptr, ptr %5, align 8, !tbaa !58
  %11 = getelementptr inbounds nuw %struct.commit_list, ptr %10, i32 0, i32 0
  %12 = load ptr, ptr %11, align 8, !tbaa !105
  %13 = load ptr, ptr %4, align 8, !tbaa !17
  %14 = icmp eq ptr %12, %13
  br i1 %14, label %15, label %16

15:                                               ; preds = %9
  store i32 1, ptr %3, align 4
  br label %21

16:                                               ; preds = %9
  %17 = load ptr, ptr %5, align 8, !tbaa !58
  %18 = getelementptr inbounds nuw %struct.commit_list, ptr %17, i32 0, i32 1
  %19 = load ptr, ptr %18, align 8, !tbaa !107
  store ptr %19, ptr %5, align 8, !tbaa !58
  br label %6, !llvm.loop !123

20:                                               ; preds = %6
  store i32 0, ptr %3, align 4
  br label %21

21:                                               ; preds = %20, %15
  %22 = load i32, ptr %3, align 4
  ret i32 %22
}