; Function Attrs: nofree norecurse nosync nounwind memory(read, inaccessiblemem: none) uwtable
define dso_local range(i32 0, 2) i32 @commit_list_contains(ptr noundef readnone %0, ptr noundef readonly %1) local_unnamed_addr #14 {
  %.not5 = icmp eq ptr %1, null
  br i1 %.not5, label %._crit_edge, label %.lr.ph

.lr.ph:                                           ; preds = %2, %5
  %.06 = phi ptr [ %7, %5 ], [ %1, %2 ]
  %3 = load ptr, ptr %.06, align 8, !tbaa !89
  %4 = icmp eq ptr %3, %0
  br i1 %4, label %._crit_edge, label %5

5:                                                ; preds = %.lr.ph
  %6 = getelementptr inbounds nuw i8, ptr %.06, i64 8
  %7 = load ptr, ptr %6, align 8, !tbaa !48
  %.not = icmp eq ptr %7, null
  br i1 %.not, label %._crit_edge, label %.lr.ph, !llvm.loop !105

._crit_edge:                                      ; preds = %.lr.ph, %5, %2
  %.04 = phi i32 [ 0, %2 ], [ 0, %5 ], [ 1, %.lr.ph ]
  ret i32 %.04
}